; Function Attrs: mustprogress uwtable
define noundef ptr @_ZN11duckdb_zstd25ZSTD_createCDict_advancedEPKvmNS_21ZSTD_dictLoadMethod_eENS_22ZSTD_dictContentType_eENS_26ZSTD_compressionParametersENS_14ZSTD_customMemE(ptr noundef %0, i64 noundef %1, i32 noundef %2, i32 noundef %3, ptr noundef readonly byval(%"struct.duckdb_zstd::ZSTD_compressionParameters") align 8 captures(none) %4, ptr noundef readonly byval(%"struct.duckdb_zstd::ZSTD_customMem") align 8 captures(none) %5) local_unnamed_addr #2 {
  %7 = alloca %"struct.duckdb_zstd::ZSTD_CCtx_params_s", align 8
  call void @llvm.lifetime.start.p0(i64 216, ptr nonnull %7) #28
  %8 = getelementptr inbounds nuw i8, ptr %7, i64 32
  call void @llvm.memset.p0.i64(ptr noundef nonnull align 8 dereferenceable(216) %7, i8 0, i64 216, i1 false)
  store i32 1, ptr %8, align 8, !tbaa !58
  %9 = getelementptr inbounds nuw i8, ptr %7, i64 4
  call void @llvm.memcpy.p0.p0.i64(ptr noundef nonnull align 4 dereferenceable(28) %9, ptr noundef nonnull align 8 dereferenceable(28) %4, i64 28, i1 false), !tbaa.struct !86
  %10 = getelementptr inbounds nuw i8, ptr %7, i64 152
  call void @llvm.memcpy.p0.p0.i64(ptr noundef nonnull align 8 dereferenceable(24) %10, ptr noundef nonnull align 8 dereferenceable(24) %5, i64 24, i1 false), !tbaa.struct !331
  %11 = call noundef ptr @_ZN11duckdb_zstd26ZSTD_createCDict_advanced2EPKvmNS_21ZSTD_dictLoadMethod_eENS_22ZSTD_dictContentType_eEPKNS_18ZSTD_CCtx_params_sENS_14ZSTD_customMemE(ptr noundef %0, i64 noundef %1, i32 noundef %2, i32 noundef %3, ptr noundef nonnull %7, ptr noundef nonnull byval(%"struct.duckdb_zstd::ZSTD_customMem") align 8 %5)
  call void @llvm.lifetime.end.p0(i64 216, ptr nonnull %7) #28
  ret ptr %11
}